target datalayout = "e-m:e-p270:32:32-p271:32:32-p272:64:64-i64:64-i128:128-f80:128-n8:16:32:64-S128"
target triple = "x86_64-pc-linux-gnu"

%struct.evp_md_ctx_st = type { ptr, ptr, ptr, i64, ptr, ptr, ptr, ptr, ptr }
%struct.evp_md_st = type { i32, i32, i32, i64, i32, ptr, ptr, ptr, ptr, ptr, i32, i32, ptr, i32, ptr, ptr, ptr, %struct.CRYPTO_REF_COUNT, ptr, ptr, ptr, ptr, ptr, ptr, ptr, ptr, ptr, ptr, ptr, ptr, ptr, ptr, ptr }
%struct.CRYPTO_REF_COUNT = type { i32 }
%struct.evp_pkey_ctx_st = type { i32, ptr, ptr, ptr, ptr, %union.anon, %struct.anon.4, ptr, ptr, ptr, i32, i32, ptr, ptr, ptr, ptr, ptr, i8, ptr }
%union.anon = type { %struct.anon.0 }
%struct.anon.0 = type { ptr, ptr }
%struct.anon.4 = type { ptr, ptr, i64, i8 }
%struct.anon.1 = type { ptr, ptr }
%struct.evp_signature_st = type { i32, ptr, ptr, ptr, %struct.CRYPTO_REF_COUNT, ptr, ptr, ptr, ptr, ptr, ptr, ptr, ptr, ptr, ptr, ptr, ptr, ptr, ptr, ptr, ptr, ptr, ptr, ptr, ptr, ptr, ptr, ptr, ptr, ptr, ptr, ptr, ptr, ptr, ptr, ptr, ptr }

; Function Attrs: nounwind uwtable
define i32 @EVP_MD_CTX_get_params(ptr noundef %0, ptr noundef %1) #0 {
  %3 = alloca i32, align 4
  %4 = alloca ptr, align 8
  %5 = alloca ptr, align 8
  %6 = alloca ptr, align 8
  %7 = alloca i32, align 4
  store ptr %0, ptr %4, align 8, !tbaa !3
  store ptr %1, ptr %5, align 8, !tbaa !42
  call void @llvm.lifetime.start.p0(i64 8, ptr %6) #8
  %8 = load ptr, ptr %4, align 8, !tbaa !3
  %9 = getelementptr inbounds nuw %struct.evp_md_ctx_st, ptr %8, i32 0, i32 5
  %10 = load ptr, ptr %9, align 8, !tbaa !30
  store ptr %10, ptr %6, align 8, !tbaa !38
  %11 = load ptr, ptr %6, align 8, !tbaa !38
  %12 = icmp ne ptr %11, null
  br i1 %12, label %13, label %50

13:                                               ; preds = %2
  %14 = load ptr, ptr %6, align 8, !tbaa !38
  %15 = getelementptr inbounds nuw %struct.evp_pkey_ctx_st, ptr %14, i32 0, i32 0
  %16 = load i32, ptr %15, align 8, !tbaa !45
  %17 = icmp eq i32 %16, 256
  br i1 %17, label %23, label %18

18:                                               ; preds = %13
  %19 = load ptr, ptr %6, align 8, !tbaa !38
  %20 = getelementptr inbounds nuw %struct.evp_pkey_ctx_st, ptr %19, i32 0, i32 0
  %21 = load i32, ptr %20, align 8, !tbaa !45
  %22 = icmp eq i32 %21, 128
  br i1 %22, label %23, label %50

23:                                               ; preds = %18, %13
  %24 = load ptr, ptr %6, align 8, !tbaa !38
  %25 = getelementptr inbounds nuw %struct.evp_pkey_ctx_st, ptr %24, i32 0, i32 5
  %26 = getelementptr inbounds nuw %struct.anon.1, ptr %25, i32 0, i32 1
  %27 = load ptr, ptr %26, align 8, !tbaa !52
  %28 = icmp ne ptr %27, null
  br i1 %28, label %29, label %50

29:                                               ; preds = %23
  %30 = load ptr, ptr %6, align 8, !tbaa !38
  %31 = getelementptr inbounds nuw %struct.evp_pkey_ctx_st, ptr %30, i32 0, i32 5
  %32 = getelementptr inbounds nuw %struct.anon.1, ptr %31, i32 0, i32 0
  %33 = load ptr, ptr %32, align 8, !tbaa !52
  %34 = getelementptr inbounds nuw %struct.evp_signature_st, ptr %33, i32 0, i32 32
  %35 = load ptr, ptr %34, align 8, !tbaa !83
  %36 = icmp ne ptr %35, null
  br i1 %36, label %37, label %50

37:                                               ; preds = %29
  %38 = load ptr, ptr %6, align 8, !tbaa !38
  %39 = getelementptr inbounds nuw %struct.evp_pkey_ctx_st, ptr %38, i32 0, i32 5
  %40 = getelementptr inbounds nuw %struct.anon.1, ptr %39, i32 0, i32 0
  %41 = load ptr, ptr %40, align 8, !tbaa !52
  %42 = getelementptr inbounds nuw %struct.evp_signature_st, ptr %41, i32 0, i32 32
  %43 = load ptr, ptr %42, align 8, !tbaa !83
  %44 = load ptr, ptr %6, align 8, !tbaa !38
  %45 = getelementptr inbounds nuw %struct.evp_pkey_ctx_st, ptr %44, i32 0, i32 5
  %46 = getelementptr inbounds nuw %struct.anon.1, ptr %45, i32 0, i32 1
  %47 = load ptr, ptr %46, align 8, !tbaa !52
  %48 = load ptr, ptr %5, align 8, !tbaa !42
  %49 = call i32 %43(ptr noundef %47, ptr noundef %48)
  store i32 %49, ptr %3, align 4
  store i32 1, ptr %7, align 4
  br label %74

50:                                               ; preds = %29, %23, %18, %2
  %51 = load ptr, ptr %4, align 8, !tbaa !3
  %52 = getelementptr inbounds nuw %struct.evp_md_ctx_st, ptr %51, i32 0, i32 1
  %53 = load ptr, ptr %52, align 8, !tbaa !16
  %54 = icmp ne ptr %53, null
  br i1 %54, label %55, label %73

55:                                               ; preds = %50
  %56 = load ptr, ptr %4, align 8, !tbaa !3
  %57 = getelementptr inbounds nuw %struct.evp_md_ctx_st, ptr %56, i32 0, i32 1
  %58 = load ptr, ptr %57, align 8, !tbaa !16
  %59 = getelementptr inbounds nuw %struct.evp_md_st, ptr %58, i32 0, i32 29
  %60 = load ptr, ptr %59, align 8, !tbaa !84
  %61 = icmp ne ptr %60, null
  br i1 %61, label %62, label %73

62:                                               ; preds = %55
  %63 = load ptr, ptr %4, align 8, !tbaa !3
  %64 = getelementptr inbounds nuw %struct.evp_md_ctx_st, ptr %63, i32 0, i32 1
  %65 = load ptr, ptr %64, align 8, !tbaa !16
  %66 = getelementptr inbounds nuw %struct.evp_md_st, ptr %65, i32 0, i32 29
  %67 = load ptr, ptr %66, align 8, !tbaa !84
  %68 = load ptr, ptr %4, align 8, !tbaa !3
  %69 = getelementptr inbounds nuw %struct.evp_md_ctx_st, ptr %68, i32 0, i32 7
  %70 = load ptr, ptr %69, align 8, !tbaa !10
  %71 = load ptr, ptr %5, align 8, !tbaa !42
  %72 = call i32 %67(ptr noundef %70, ptr noundef %71)
  store i32 %72, ptr %3, align 4
  store i32 1, ptr %7, align 4
  br label %74

73:                                               ; preds = %55, %50
  store i32 0, ptr %3, align 4
  store i32 1, ptr %7, align 4
  br label %74

74:                                               ; preds = %73, %62, %37
  call void @llvm.lifetime.end.p0(i64 8, ptr %6) #8
  %75 = load i32, ptr %3, align 4
  ret i32 %75
}